target datalayout = "e-m:e-p270:32:32-p271:32:32-p272:64:64-i64:64-i128:128-f80:128-n8:16:32:64-S128"
target triple = "x86_64-pc-linux-gnu"

%struct.AVChannelLayout = type { i32, i32, %union.anon.0, ptr }
%union.anon.0 = type { i64 }
%struct.AVCodecContext = type { ptr, i32, i32, ptr, i32, i32, ptr, ptr, ptr, i64, i32, i32, ptr, i32, %struct.AVRational, %struct.AVRational, %struct.AVRational, i32, i32, i32, i32, i32, %struct.AVRational, i32, i32, i32, i32, i32, i32, i32, i32, i32, i32, i32, ptr, ptr, i32, float, float, float, float, float, float, float, float, float, i32, i32, i32, i32, i32, i32, i32, i32, i32, i32, i32, i32, ptr, ptr, ptr, i32, i32, i32, i32, i32, i32, i32, i32, i32, i32, %struct.AVChannelLayout, i32, i32, i32, i32, i32, i32, i32, i32, ptr, i32, i32, i32, float, float, i32, i32, i32, i32, i32, ptr, i64, i64, float, float, i32, i32, ptr, ptr, i32, i32, i32, i32, i32, ptr, ptr, ptr, ptr, i32, i32, [8 x i64], i32, i32, i32, i32, i32, i32, i32, ptr, ptr, i32, i32, i32, i32, i32, i32, i32, i32, i32, i32, ptr, ptr, i32, i32, ptr, ptr, ptr, ptr, i32, i32, i64, i32, i32, i64, ptr, i64, ptr, i32, ptr, i32 }
%struct.AVRational = type { i32, i32 }
%struct.WMAVoiceContext = type { %struct.GetBitContext, [25 x i8], i32, i32, i32, i32, i32, i32, i32, i32, i32, i32, i32, i32, i32, i32, i32, i32, [4 x i16], i32, i32, i32, [320 x i8], i32, %struct.PutBitContext, [16 x double], i32, i32, i32, float, i32, i32, [2 x i32], [2 x i32], i32, i32, i32, [6 x float], [416 x float], [16 x float], ptr, ptr, ptr, ptr, ptr, ptr, ptr, ptr, [511 x float], [511 x float], float, [2 x float], [896 x float], [160 x float], i32, [130 x float], [8 x i8], [130 x float], [8 x i8], [144 x float] }
%struct.GetBitContext = type { ptr, ptr, i32, i32, i32 }
%struct.PutBitContext = type { i32, i32, ptr, ptr, ptr }

; Function Attrs: cold nounwind optsize uwtable
define internal void @wmavoice_flush(ptr noundef %0) #0 {
  %2 = alloca ptr, align 8
  %3 = alloca ptr, align 8
  %4 = alloca i32, align 4
  store ptr %0, ptr %2, align 8, !tbaa !4
  call void @llvm.lifetime.start.p0(i64 8, ptr %3) #11
  %5 = load ptr, ptr %2, align 8, !tbaa !4
  %6 = getelementptr inbounds nuw %struct.AVCodecContext, ptr %5, i32 0, i32 6
  %7 = load ptr, ptr %6, align 8, !tbaa !9
  store ptr %7, ptr %3, align 8, !tbaa !29
  call void @llvm.lifetime.start.p0(i64 4, ptr %4) #11
  %8 = load ptr, ptr %3, align 8, !tbaa !29
  %9 = getelementptr inbounds nuw %struct.WMAVoiceContext, ptr %8, i32 0, i32 50
  store float 0.000000e+00, ptr %9, align 16, !tbaa !89
  %10 = load ptr, ptr %3, align 8, !tbaa !29
  %11 = getelementptr inbounds nuw %struct.WMAVoiceContext, ptr %10, i32 0, i32 23
  store i32 0, ptr %11, align 16, !tbaa !87
  %12 = load ptr, ptr %3, align 8, !tbaa !29
  %13 = getelementptr inbounds nuw %struct.WMAVoiceContext, ptr %12, i32 0, i32 21
  store i32 0, ptr %13, align 4, !tbaa !88
  store i32 0, ptr %4, align 4, !tbaa !35
  br label %14

14:                                               ; preds = %36, %1
  %15 = load i32, ptr %4, align 4, !tbaa !35
  %16 = load ptr, ptr %3, align 8, !tbaa !29
  %17 = getelementptr inbounds nuw %struct.WMAVoiceContext, ptr %16, i32 0, i32 8
  %18 = load i32, ptr %17, align 4, !tbaa !50
  %19 = icmp slt i32 %15, %18
  br i1 %19, label %20, label %39

20:                                               ; preds = %14
  %21 = load i32, ptr %4, align 4, !tbaa !35
  %22 = sitofp i32 %21 to double
  %23 = fadd nsz double %22, 1.000000e+00
  %24 = fmul nsz double 0x400921FB54442D18, %23
  %25 = load ptr, ptr %3, align 8, !tbaa !29
  %26 = getelementptr inbounds nuw %struct.WMAVoiceContext, ptr %25, i32 0, i32 8
  %27 = load i32, ptr %26, align 4, !tbaa !50
  %28 = sitofp i32 %27 to double
  %29 = fadd nsz double %28, 1.000000e+00
  %30 = fdiv nsz double %24, %29
  %31 = load ptr, ptr %3, align 8, !tbaa !29
  %32 = getelementptr inbounds nuw %struct.WMAVoiceContext, ptr %31, i32 0, i32 25
  %33 = load i32, ptr %4, align 4, !tbaa !35
  %34 = sext i32 %33 to i64
  %35 = getelementptr inbounds [16 x double], ptr %32, i64 0, i64 %34
  store double %30, ptr %35, align 8, !tbaa !51
  br label %36

36:                                               ; preds = %20
  %37 = load i32, ptr %4, align 4, !tbaa !35
  %38 = add nsw i32 %37, 1
  store i32 %38, ptr %4, align 4, !tbaa !35
  br label %14, !llvm.loop !90

39:                                               ; preds = %14
  %40 = load ptr, ptr %3, align 8, !tbaa !29
  %41 = getelementptr inbounds nuw %struct.WMAVoiceContext, ptr %40, i32 0, i32 38
  %42 = getelementptr inbounds [416 x float], ptr %41, i64 0, i64 0
  call void @llvm.memset.p0.i64(ptr align 4 %42, i8 0, i64 1664, i1 false)
  %43 = load ptr, ptr %3, align 8, !tbaa !29
  %44 = getelementptr inbounds nuw %struct.WMAVoiceContext, ptr %43, i32 0, i32 39
  %45 = getelementptr inbounds [16 x float], ptr %44, i64 0, i64 0
  call void @llvm.memset.p0.i64(ptr align 4 %45, i8 0, i64 64, i1 false)
  %46 = load ptr, ptr %3, align 8, !tbaa !29
  %47 = getelementptr inbounds nuw %struct.WMAVoiceContext, ptr %46, i32 0, i32 37
  %48 = getelementptr inbounds [6 x float], ptr %47, i64 0, i64 0
  call void @llvm.memset.p0.i64(ptr align 4 %48, i8 0, i64 24, i1 false)
  %49 = load ptr, ptr %3, align 8, !tbaa !29
  %50 = getelementptr inbounds nuw %struct.WMAVoiceContext, ptr %49, i32 0, i32 4
  %51 = load i32, ptr %50, align 4, !tbaa !41
  %52 = icmp ne i32 %51, 0
  br i1 %52, label %53, label %81

53:                                               ; preds = %39
  %54 = load ptr, ptr %3, align 8, !tbaa !29
  %55 = getelementptr inbounds nuw %struct.WMAVoiceContext, ptr %54, i32 0, i32 59
  %56 = load ptr, ptr %3, align 8, !tbaa !29
  %57 = getelementptr inbounds nuw %struct.WMAVoiceContext, ptr %56, i32 0, i32 8
  %58 = load i32, ptr %57, align 4, !tbaa !50
  %59 = sub nsw i32 16, %58
  %60 = sext i32 %59 to i64
  %61 = getelementptr inbounds [144 x float], ptr %55, i64 0, i64 %60
  %62 = load ptr, ptr %3, align 8, !tbaa !29
  %63 = getelementptr inbounds nuw %struct.WMAVoiceContext, ptr %62, i32 0, i32 8
  %64 = load i32, ptr %63, align 4, !tbaa !50
  %65 = sext i32 %64 to i64
  %66 = mul i64 4, %65
  call void @llvm.memset.p0.i64(ptr align 4 %61, i8 0, i64 %66, i1 false)
  %67 = load ptr, ptr %3, align 8, !tbaa !29
  %68 = getelementptr inbounds nuw %struct.WMAVoiceContext, ptr %67, i32 0, i32 51
  %69 = getelementptr inbounds [2 x float], ptr %68, i64 0, i64 0
  call void @llvm.memset.p0.i64(ptr align 4 %69, i8 0, i64 8, i1 false)
  %70 = load ptr, ptr %3, align 8, !tbaa !29
  %71 = getelementptr inbounds nuw %struct.WMAVoiceContext, ptr %70, i32 0, i32 52
  %72 = getelementptr inbounds [896 x float], ptr %71, i64 0, i64 0
  %73 = load ptr, ptr %3, align 8, !tbaa !29
  %74 = getelementptr inbounds nuw %struct.WMAVoiceContext, ptr %73, i32 0, i32 3
  %75 = load i32, ptr %74, align 16, !tbaa !60
  %76 = sext i32 %75 to i64
  %77 = mul i64 4, %76
  call void @llvm.memset.p0.i64(ptr align 4 %72, i8 0, i64 %77, i1 false)
  %78 = load ptr, ptr %3, align 8, !tbaa !29
  %79 = getelementptr inbounds nuw %struct.WMAVoiceContext, ptr %78, i32 0, i32 53
  %80 = getelementptr inbounds [160 x float], ptr %79, i64 0, i64 0
  call void @llvm.memset.p0.i64(ptr align 4 %80, i8 0, i64 640, i1 false)
  br label %81

81:                                               ; preds = %53, %39
  call void @llvm.lifetime.end.p0(i64 4, ptr %4) #11
  call void @llvm.lifetime.end.p0(i64 8, ptr %3) #11
  ret void
}