; Function Attrs: cold nofree norecurse nosync nounwind optsize memory(readwrite, inaccessiblemem: none) uwtable
define internal void @wmavoice_flush(ptr noundef readonly captures(none) %0) #2 {
  %2 = getelementptr inbounds nuw i8, ptr %0, i64 32
  %3 = load ptr, ptr %2, align 8, !tbaa !4
  %4 = getelementptr inbounds nuw i8, ptr %3, i64 6592
  store float 0.000000e+00, ptr %4, align 16, !tbaa !86
  %5 = getelementptr inbounds nuw i8, ptr %3, i64 464
  store i32 0, ptr %5, align 16, !tbaa !78
  %6 = getelementptr inbounds nuw i8, ptr %3, i64 140
  store i32 0, ptr %6, align 4, !tbaa !84
  %7 = getelementptr inbounds nuw i8, ptr %3, i64 84
  %8 = load i32, ptr %7, align 4, !tbaa !45
  %9 = icmp sgt i32 %8, 0
  br i1 %9, label %.lr.ph, label %._crit_edge

.lr.ph:                                           ; preds = %1
  %10 = add nuw i32 %8, 1
  %11 = uitofp i32 %10 to double
  %12 = getelementptr inbounds nuw i8, ptr %3, i64 504
  %wide.trip.count = zext nneg i32 %8 to i64
  br label %13

13:                                               ; preds = %.lr.ph, %13
  %indvars.iv = phi i64 [ 0, %.lr.ph ], [ %indvars.iv.next, %13 ]
  %indvars.iv.next = add nuw nsw i64 %indvars.iv, 1
  %14 = trunc nuw nsw i64 %indvars.iv.next to i32
  %15 = uitofp nneg i32 %14 to double
  %16 = fmul nsz double %15, 0x400921FB54442D18
  %17 = fdiv nsz double %16, %11
  %18 = getelementptr inbounds nuw [16 x double], ptr %12, i64 0, i64 %indvars.iv
  store double %17, ptr %18, align 8, !tbaa !46
  %exitcond.not = icmp eq i64 %indvars.iv.next, %wide.trip.count
  br i1 %exitcond.not, label %._crit_edge, label %13, !llvm.loop !87

._crit_edge:                                      ; preds = %13, %1
  %19 = getelementptr inbounds nuw i8, ptr %3, i64 684
  %20 = getelementptr inbounds nuw i8, ptr %3, i64 68
  tail call void @llvm.memset.p0.i64(ptr noundef nonnull align 4 dereferenceable(1752) %19, i8 0, i64 1752, i1 false)
  %21 = load i32, ptr %20, align 4, !tbaa !36
  %.not = icmp eq i32 %21, 0
  br i1 %.not, label %36, label %22

22:                                               ; preds = %._crit_edge
  %23 = getelementptr inbounds nuw i8, ptr %3, i64 11888
  %24 = sub nsw i32 16, %8
  %25 = sext i32 %24 to i64
  %26 = getelementptr inbounds [144 x float], ptr %23, i64 0, i64 %25
  %27 = sext i32 %8 to i64
  %28 = shl nsw i64 %27, 2
  tail call void @llvm.memset.p0.i64(ptr nonnull align 4 %26, i8 0, i64 %28, i1 false)
  %29 = getelementptr inbounds nuw i8, ptr %3, i64 6596
  store i64 0, ptr %29, align 4
  %30 = getelementptr inbounds nuw i8, ptr %3, i64 6604
  %31 = getelementptr inbounds nuw i8, ptr %3, i64 64
  %32 = load i32, ptr %31, align 16, !tbaa !60
  %33 = sext i32 %32 to i64
  %34 = shl nsw i64 %33, 2
  tail call void @llvm.memset.p0.i64(ptr nonnull align 4 %30, i8 0, i64 %34, i1 false)
  %35 = getelementptr inbounds nuw i8, ptr %3, i64 10188
  tail call void @llvm.memset.p0.i64(ptr noundef nonnull align 4 dereferenceable(640) %35, i8 0, i64 640, i1 false)
  br label %36

36:                                               ; preds = %22, %._crit_edge
  ret void
}